; Function Attrs: mustprogress uwtable
define hidden void @_ZN4cvc58internal6theory2bv16TheoryBVRewriter17RewriteSignExtendENS0_12NodeTemplateILb0EEEb(ptr noalias nocapture writeonly sret(%"struct.cvc5::internal::theory::RewriteResponse") align 8 %agg.result, ptr nocapture noundef readonly %node, i1 zeroext %prerewrite) #4 align 2 personality ptr @__gxx_personality_v0 {
entry:
  %resultNode = alloca %"class.cvc5::internal::NodeTemplate", align 8
  %agg.tmp = alloca %"class.cvc5::internal::NodeTemplate.0", align 8
  %agg.tmp3 = alloca %"class.cvc5::internal::NodeTemplate", align 8
  %agg.tmp7 = alloca %"class.cvc5::internal::NodeTemplate", align 8
  %0 = load ptr, ptr %node, align 8
  store ptr %0, ptr %agg.tmp, align 8
  call void @_ZN4cvc58internal6theory2bv21LinearRewriteStrategyINS2_11RewriteRuleILNS2_13RewriteRuleIdE128EEENS4_ILS5_64EEENS4_ILS5_0EEES8_S8_S8_S8_S8_S8_S8_S8_S8_S8_S8_S8_S8_S8_S8_S8_S8_E5applyENS0_12NodeTemplateILb0EEE(ptr nonnull sret(%"class.cvc5::internal::NodeTemplate") align 8 %resultNode, ptr noundef nonnull %agg.tmp)
  %1 = load ptr, ptr %resultNode, align 8
  %2 = load ptr, ptr %node, align 8
  %cmp.i.not = icmp eq ptr %1, %2
  br i1 %cmp.i.not, label %if.end, label %if.then

if.then:                                          ; preds = %entry
  store ptr %1, ptr %agg.tmp3, align 8
  %bf.load.i.i = load i64, ptr %1, align 8
  %bf.lshr.i.i = lshr i64 %bf.load.i.i, 40
  %3 = trunc i64 %bf.lshr.i.i to i32
  %bf.cast.i.i = and i32 %3, 1048575
  %cmp.i.i = icmp ult i32 %bf.cast.i.i, 1048574
  br i1 %cmp.i.i, label %if.then.i.i, label %if.else.i.i

if.then.i.i:                                      ; preds = %if.then
  %bf.value.i.i = add i64 %bf.load.i.i, 1099511627776
  %bf.shl.i.i = and i64 %bf.value.i.i, 1152920405095219200
  %bf.clear7.i.i = and i64 %bf.load.i.i, -1152920405095219201
  %bf.set.i.i = or disjoint i64 %bf.shl.i.i, %bf.clear7.i.i
  store i64 %bf.set.i.i, ptr %1, align 8
  br label %invoke.cont4

if.else.i.i:                                      ; preds = %if.then
  %cmp12.i.i = icmp eq i32 %bf.cast.i.i, 1048574
  br i1 %cmp12.i.i, label %if.then13.i.i, label %invoke.cont4

if.then13.i.i:                                    ; preds = %if.else.i.i
  %bf.set23.i.i = or i64 %bf.load.i.i, 1152920405095219200
  store i64 %bf.set23.i.i, ptr %1, align 8
  invoke void @_ZN4cvc58internal4expr9NodeValue20markRefCountMaxedOutEv(ptr noundef nonnull align 8 dereferenceable(16) %1)
          to label %if.then13.i.i.invoke.cont4_crit_edge unwind label %lpad1

if.then13.i.i.invoke.cont4_crit_edge:             ; preds = %if.then13.i.i
  %bf.load.i.i.i.pre = load i64, ptr %1, align 8
  br label %invoke.cont4

invoke.cont4:                                     ; preds = %if.then13.i.i.invoke.cont4_crit_edge, %if.else.i.i, %if.then.i.i
  %bf.load.i.i.i = phi i64 [ %bf.load.i.i.i.pre, %if.then13.i.i.invoke.cont4_crit_edge ], [ %bf.load.i.i, %if.else.i.i ], [ %bf.set.i.i, %if.then.i.i ]
  store i32 1, ptr %agg.result, align 8
  %d_node.i = getelementptr inbounds i8, ptr %agg.result, i64 8
  store ptr %1, ptr %d_node.i, align 8
  %bf.lshr.i.i.i = lshr i64 %bf.load.i.i.i, 40
  %4 = trunc i64 %bf.lshr.i.i.i to i32
  %bf.cast.i.i.i = and i32 %4, 1048575
  %cmp.i.i.i = icmp ult i32 %bf.cast.i.i.i, 1048574
  br i1 %cmp.i.i.i, label %if.then.i.i.i, label %if.else.i.i.i

if.then.i.i.i:                                    ; preds = %invoke.cont4
  %bf.value.i.i.i = add i64 %bf.load.i.i.i, 1099511627776
  %bf.shl.i.i.i = and i64 %bf.value.i.i.i, 1152920405095219200
  %bf.clear7.i.i.i = and i64 %bf.load.i.i.i, -1152920405095219201
  %bf.set.i.i.i = or disjoint i64 %bf.shl.i.i.i, %bf.clear7.i.i.i
  store i64 %bf.set.i.i.i, ptr %1, align 8
  br label %invoke.cont6

if.else.i.i.i:                                    ; preds = %invoke.cont4
  %cmp12.i.i.i = icmp eq i32 %bf.cast.i.i.i, 1048574
  br i1 %cmp12.i.i.i, label %if.then13.i.i.i, label %invoke.cont6

if.then13.i.i.i:                                  ; preds = %if.else.i.i.i
  %bf.set23.i.i.i = or i64 %bf.load.i.i.i, 1152920405095219200
  store i64 %bf.set23.i.i.i, ptr %1, align 8
  invoke void @_ZN4cvc58internal4expr9NodeValue20markRefCountMaxedOutEv(ptr noundef nonnull align 8 dereferenceable(16) %1)
          to label %if.then13.i.i.i.invoke.cont6_crit_edge unwind label %lpad5

if.then13.i.i.i.invoke.cont6_crit_edge:           ; preds = %if.then13.i.i.i
  %bf.load.i.i4.pre = load i64, ptr %1, align 8
  br label %invoke.cont6

invoke.cont6:                                     ; preds = %if.then13.i.i.i.invoke.cont6_crit_edge, %if.else.i.i.i, %if.then.i.i.i
  %bf.load.i.i4 = phi i64 [ %bf.load.i.i4.pre, %if.then13.i.i.i.invoke.cont6_crit_edge ], [ %bf.load.i.i.i, %if.else.i.i.i ], [ %bf.set.i.i.i, %if.then.i.i.i ]
  %5 = and i64 %bf.load.i.i4, 1152920405095219200
  %cmp.not.i.i = icmp eq i64 %5, 1152920405095219200
  br i1 %cmp.not.i.i, label %cleanup, label %if.then.i.i5

if.then.i.i5:                                     ; preds = %invoke.cont6
  %bf.value.i.i6 = add i64 %bf.load.i.i4, 1152920405095219200
  %bf.shl.i.i7 = and i64 %bf.value.i.i6, 1152920405095219200
  %bf.clear7.i.i8 = and i64 %bf.load.i.i4, -1152920405095219201
  %bf.set.i.i9 = or disjoint i64 %bf.shl.i.i7, %bf.clear7.i.i8
  store i64 %bf.set.i.i9, ptr %1, align 8
  %cmp12.i.i10 = icmp eq i64 %bf.shl.i.i7, 0
  br i1 %cmp12.i.i10, label %if.then13.i.i11, label %cleanup

if.then13.i.i11:                                  ; preds = %if.then.i.i5
  invoke void @_ZN4cvc58internal4expr9NodeValue15markForDeletionEv(ptr noundef nonnull align 8 dereferenceable(16) %1)
          to label %cleanup unwind label %terminate.lpad.i

terminate.lpad.i:                                 ; preds = %if.then13.i.i11
  %6 = landingpad { ptr, i32 }
          catch ptr null
  %7 = extractvalue { ptr, i32 } %6, 0
  call void @__clang_call_terminate(ptr %7) #19
  unreachable

lpad1:                                            ; preds = %if.then13.i.i18, %if.then13.i.i
  %8 = landingpad { ptr, i32 }
          cleanup
  br label %ehcleanup

lpad5:                                            ; preds = %if.then13.i.i.i
  %9 = landingpad { ptr, i32 }
          cleanup
  call void @_ZN4cvc58internal12NodeTemplateILb1EED2Ev(ptr noundef nonnull align 8 dereferenceable(8) %agg.tmp3) #20
  br label %ehcleanup

if.end:                                           ; preds = %entry
  store ptr %1, ptr %agg.tmp7, align 8
  %bf.load.i.i12 = load i64, ptr %1, align 8
  %bf.lshr.i.i13 = lshr i64 %bf.load.i.i12, 40
  %10 = trunc i64 %bf.lshr.i.i13 to i32
  %bf.cast.i.i14 = and i32 %10, 1048575
  %cmp.i.i15 = icmp ult i32 %bf.cast.i.i14, 1048574
  br i1 %cmp.i.i15, label %if.then.i.i20, label %if.else.i.i16

if.then.i.i20:                                    ; preds = %if.end
  %bf.value.i.i21 = add i64 %bf.load.i.i12, 1099511627776
  %bf.shl.i.i22 = and i64 %bf.value.i.i21, 1152920405095219200
  %bf.clear7.i.i23 = and i64 %bf.load.i.i12, -1152920405095219201
  %bf.set.i.i24 = or disjoint i64 %bf.shl.i.i22, %bf.clear7.i.i23
  store i64 %bf.set.i.i24, ptr %1, align 8
  br label %invoke.cont8

if.else.i.i16:                                    ; preds = %if.end
  %cmp12.i.i17 = icmp eq i32 %bf.cast.i.i14, 1048574
  br i1 %cmp12.i.i17, label %if.then13.i.i18, label %invoke.cont8

if.then13.i.i18:                                  ; preds = %if.else.i.i16
  %bf.set23.i.i19 = or i64 %bf.load.i.i12, 1152920405095219200
  store i64 %bf.set23.i.i19, ptr %1, align 8
  invoke void @_ZN4cvc58internal4expr9NodeValue20markRefCountMaxedOutEv(ptr noundef nonnull align 8 dereferenceable(16) %1)
          to label %if.then13.i.i18.invoke.cont8_crit_edge unwind label %lpad1

if.then13.i.i18.invoke.cont8_crit_edge:           ; preds = %if.then13.i.i18
  %bf.load.i.i.i28.pre = load i64, ptr %1, align 8
  br label %invoke.cont8

invoke.cont8:                                     ; preds = %if.then13.i.i18.invoke.cont8_crit_edge, %if.else.i.i16, %if.then.i.i20
  %bf.load.i.i.i28 = phi i64 [ %bf.load.i.i.i28.pre, %if.then13.i.i18.invoke.cont8_crit_edge ], [ %bf.load.i.i12, %if.else.i.i16 ], [ %bf.set.i.i24, %if.then.i.i20 ]
  store i32 0, ptr %agg.result, align 8
  %d_node.i27 = getelementptr inbounds i8, ptr %agg.result, i64 8
  store ptr %1, ptr %d_node.i27, align 8
  %bf.lshr.i.i.i29 = lshr i64 %bf.load.i.i.i28, 40
  %11 = trunc i64 %bf.lshr.i.i.i29 to i32
  %bf.cast.i.i.i30 = and i32 %11, 1048575
  %cmp.i.i.i31 = icmp ult i32 %bf.cast.i.i.i30, 1048574
  br i1 %cmp.i.i.i31, label %if.then.i.i.i36, label %if.else.i.i.i32

if.then.i.i.i36:                                  ; preds = %invoke.cont8
  %bf.value.i.i.i37 = add i64 %bf.load.i.i.i28, 1099511627776
  %bf.shl.i.i.i38 = and i64 %bf.value.i.i.i37, 1152920405095219200
  %bf.clear7.i.i.i39 = and i64 %bf.load.i.i.i28, -1152920405095219201
  %bf.set.i.i.i40 = or disjoint i64 %bf.shl.i.i.i38, %bf.clear7.i.i.i39
  store i64 %bf.set.i.i.i40, ptr %1, align 8
  br label %invoke.cont10

if.else.i.i.i32:                                  ; preds = %invoke.cont8
  %cmp12.i.i.i33 = icmp eq i32 %bf.cast.i.i.i30, 1048574
  br i1 %cmp12.i.i.i33, label %if.then13.i.i.i34, label %invoke.cont10

if.then13.i.i.i34:                                ; preds = %if.else.i.i.i32
  %bf.set23.i.i.i35 = or i64 %bf.load.i.i.i28, 1152920405095219200
  store i64 %bf.set23.i.i.i35, ptr %1, align 8
  invoke void @_ZN4cvc58internal4expr9NodeValue20markRefCountMaxedOutEv(ptr noundef nonnull align 8 dereferenceable(16) %1)
          to label %if.then13.i.i.i34.invoke.cont10_crit_edge unwind label %lpad9

if.then13.i.i.i34.invoke.cont10_crit_edge:        ; preds = %if.then13.i.i.i34
  %bf.load.i.i43.pre = load i64, ptr %1, align 8
  br label %invoke.cont10

invoke.cont10:                                    ; preds = %if.then13.i.i.i34.invoke.cont10_crit_edge, %if.else.i.i.i32, %if.then.i.i.i36
  %bf.load.i.i43 = phi i64 [ %bf.load.i.i43.pre, %if.then13.i.i.i34.invoke.cont10_crit_edge ], [ %bf.load.i.i.i28, %if.else.i.i.i32 ], [ %bf.set.i.i.i40, %if.then.i.i.i36 ]
  %12 = and i64 %bf.load.i.i43, 1152920405095219200
  %cmp.not.i.i44 = icmp eq i64 %12, 1152920405095219200
  br i1 %cmp.not.i.i44, label %cleanup, label %if.then.i.i45

if.then.i.i45:                                    ; preds = %invoke.cont10
  %bf.value.i.i46 = add i64 %bf.load.i.i43, 1152920405095219200
  %bf.shl.i.i47 = and i64 %bf.value.i.i46, 1152920405095219200
  %bf.clear7.i.i48 = and i64 %bf.load.i.i43, -1152920405095219201
  %bf.set.i.i49 = or disjoint i64 %bf.shl.i.i47, %bf.clear7.i.i48
  store i64 %bf.set.i.i49, ptr %1, align 8
  %cmp12.i.i50 = icmp eq i64 %bf.shl.i.i47, 0
  br i1 %cmp12.i.i50, label %if.then13.i.i51, label %cleanup

if.then13.i.i51:                                  ; preds = %if.then.i.i45
  invoke void @_ZN4cvc58internal4expr9NodeValue15markForDeletionEv(ptr noundef nonnull align 8 dereferenceable(16) %1)
          to label %cleanup unwind label %terminate.lpad.i52

terminate.lpad.i52:                               ; preds = %if.then13.i.i51
  %13 = landingpad { ptr, i32 }
          catch ptr null
  %14 = extractvalue { ptr, i32 } %13, 0
  call void @__clang_call_terminate(ptr %14) #19
  unreachable

lpad9:                                            ; preds = %if.then13.i.i.i34
  %15 = landingpad { ptr, i32 }
          cleanup
  call void @_ZN4cvc58internal12NodeTemplateILb1EED2Ev(ptr noundef nonnull align 8 dereferenceable(8) %agg.tmp7) #20
  br label %ehcleanup

cleanup:                                          ; preds = %if.then13.i.i51, %if.then.i.i45, %invoke.cont10, %if.then13.i.i11, %if.then.i.i5, %invoke.cont6
  %16 = load ptr, ptr %resultNode, align 8
  %bf.load.i.i54 = load i64, ptr %16, align 8
  %17 = and i64 %bf.load.i.i54, 1152920405095219200
  %cmp.not.i.i55 = icmp eq i64 %17, 1152920405095219200
  br i1 %cmp.not.i.i55, label %_ZN4cvc58internal12NodeTemplateILb1EED2Ev.exit64, label %if.then.i.i56

if.then.i.i56:                                    ; preds = %cleanup
  %bf.value.i.i57 = add i64 %bf.load.i.i54, 1152920405095219200
  %bf.shl.i.i58 = and i64 %bf.value.i.i57, 1152920405095219200
  %bf.clear7.i.i59 = and i64 %bf.load.i.i54, -1152920405095219201
  %bf.set.i.i60 = or disjoint i64 %bf.shl.i.i58, %bf.clear7.i.i59
  store i64 %bf.set.i.i60, ptr %16, align 8
  %cmp12.i.i61 = icmp eq i64 %bf.shl.i.i58, 0
  br i1 %cmp12.i.i61, label %if.then13.i.i62, label %_ZN4cvc58internal12NodeTemplateILb1EED2Ev.exit64

if.then13.i.i62:                                  ; preds = %if.then.i.i56
  invoke void @_ZN4cvc58internal4expr9NodeValue15markForDeletionEv(ptr noundef nonnull align 8 dereferenceable(16) %16)
          to label %_ZN4cvc58internal12NodeTemplateILb1EED2Ev.exit64 unwind label %terminate.lpad.i63

terminate.lpad.i63:                               ; preds = %if.then13.i.i62
  %18 = landingpad { ptr, i32 }
          catch ptr null
  %19 = extractvalue { ptr, i32 } %18, 0
  call void @__clang_call_terminate(ptr %19) #19
  unreachable

_ZN4cvc58internal12NodeTemplateILb1EED2Ev.exit64: ; preds = %cleanup, %if.then.i.i56, %if.then13.i.i62
  ret void

ehcleanup:                                        ; preds = %lpad9, %lpad5, %lpad1
  %.pn = phi { ptr, i32 } [ %9, %lpad5 ], [ %8, %lpad1 ], [ %15, %lpad9 ]
  call void @_ZN4cvc58internal12NodeTemplateILb1EED2Ev(ptr noundef nonnull align 8 dereferenceable(8) %resultNode) #20
  resume { ptr, i32 } %.pn
}